SF:/Users/nomurarikuto/Desktop/大学/1セメ/金2エンピリカルソフトウェア工学特論/squirrelt/src/app.rs
FN:39,_RNvNtCs43Z3K0Ttv6Y_9squirrelt3app12read_entries
FN:59,_RNvNtCs43Z3K0Ttv6Y_9squirrelt3app12sort_entries
FN:8,_RNvNtCs43Z3K0Ttv6Y_9squirrelt3app3run
FN:61,_RNCNvNtCs43Z3K0Ttv6Y_9squirrelt3app12sort_entries0B5_
FN:69,_RNCNvNtCs43Z3K0Ttv6Y_9squirrelt3app12sort_entriess0_0B5_
FN:67,_RNCNvNtCs43Z3K0Ttv6Y_9squirrelt3app12sort_entriess_0B5_
FN:12,_RNCNvNtCs43Z3K0Ttv6Y_9squirrelt3app3run0B5_
FN:93,_RNvNtNtCs8jEUns2Wh0T_9squirrelt3app5tests11create_file
FN:83,_RNvNtNtCs8jEUns2Wh0T_9squirrelt3app5tests13transient_dir
FN:152,_RNvNtNtCs8jEUns2Wh0T_9squirrelt3app5testss_31sort_entries_by_size_descending
FN:99,_RNvNtNtCs8jEUns2Wh0T_9squirrelt3app5testss_35read_entries_returns_expected_files
FN:122,_RNvNtNtCs8jEUns2Wh0T_9squirrelt3app5testss_37sort_entries_defaults_to_alphabetical
FN:182,_RNvNtNtCs8jEUns2Wh0T_9squirrelt3app5testss_40sort_entries_by_modified_time_descending
FN:12,_RNCNvNtCs8jEUns2Wh0T_9squirrelt3app3run0B5_
FN:8,_RNvNtCs8jEUns2Wh0T_9squirrelt3app3run
FN:61,_RNCNvNtCs8jEUns2Wh0T_9squirrelt3app12sort_entries0B5_
FN:69,_RNCNvNtCs8jEUns2Wh0T_9squirrelt3app12sort_entriess0_0B5_
FN:67,_RNCNvNtCs8jEUns2Wh0T_9squirrelt3app12sort_entriess_0B5_
FN:171,_RNCNvNtNtCs8jEUns2Wh0T_9squirrelt3app5testss_31sort_entries_by_size_descending0B7_
FN:110,_RNCNvNtNtCs8jEUns2Wh0T_9squirrelt3app5testss_35read_entries_returns_expected_files0B7_
FN:141,_RNCNvNtNtCs8jEUns2Wh0T_9squirrelt3app5testss_37sort_entries_defaults_to_alphabetical0B7_
FN:202,_RNCNvNtNtCs8jEUns2Wh0T_9squirrelt3app5testss_40sort_entries_by_modified_time_descending0B7_
FN:39,_RNvNtCs8jEUns2Wh0T_9squirrelt3app12read_entries
FN:59,_RNvNtCs8jEUns2Wh0T_9squirrelt3app12sort_entries
FNDA:3,_RNvNtCs43Z3K0Ttv6Y_9squirrelt3app12read_entries
FNDA:3,_RNvNtCs43Z3K0Ttv6Y_9squirrelt3app12sort_entries
FNDA:3,_RNvNtCs43Z3K0Ttv6Y_9squirrelt3app3run
FNDA:0,_RNCNvNtCs43Z3K0Ttv6Y_9squirrelt3app12sort_entries0B5_
FNDA:1,_RNCNvNtCs43Z3K0Ttv6Y_9squirrelt3app12sort_entriess0_0B5_
FNDA:1,_RNCNvNtCs43Z3K0Ttv6Y_9squirrelt3app12sort_entriess_0B5_
FNDA:4,_RNCNvNtCs43Z3K0Ttv6Y_9squirrelt3app3run0B5_
FNDA:8,_RNvNtNtCs8jEUns2Wh0T_9squirrelt3app5tests11create_file
FNDA:4,_RNvNtNtCs8jEUns2Wh0T_9squirrelt3app5tests13transient_dir
FNDA:1,_RNvNtNtCs8jEUns2Wh0T_9squirrelt3app5testss_31sort_entries_by_size_descending
FNDA:1,_RNvNtNtCs8jEUns2Wh0T_9squirrelt3app5testss_35read_entries_returns_expected_files
FNDA:1,_RNvNtNtCs8jEUns2Wh0T_9squirrelt3app5testss_37sort_entries_defaults_to_alphabetical
FNDA:1,_RNvNtNtCs8jEUns2Wh0T_9squirrelt3app5testss_40sort_entries_by_modified_time_descending
FNDA:0,_RNCNvNtCs8jEUns2Wh0T_9squirrelt3app3run0B5_
FNDA:0,_RNvNtCs8jEUns2Wh0T_9squirrelt3app3run
FNDA:1,_RNCNvNtCs8jEUns2Wh0T_9squirrelt3app12sort_entries0B5_
FNDA:1,_RNCNvNtCs8jEUns2Wh0T_9squirrelt3app12sort_entriess0_0B5_
FNDA:1,_RNCNvNtCs8jEUns2Wh0T_9squirrelt3app12sort_entriess_0B5_
FNDA:2,_RNCNvNtNtCs8jEUns2Wh0T_9squirrelt3app5testss_31sort_entries_by_size_descending0B7_
FNDA:2,_RNCNvNtNtCs8jEUns2Wh0T_9squirrelt3app5testss_35read_entries_returns_expected_files0B7_
FNDA:2,_RNCNvNtNtCs8jEUns2Wh0T_9squirrelt3app5testss_37sort_entries_defaults_to_alphabetical0B7_
FNDA:2,_RNCNvNtNtCs8jEUns2Wh0T_9squirrelt3app5testss_40sort_entries_by_modified_time_descending0B7_
FNDA:4,_RNvNtCs8jEUns2Wh0T_9squirrelt3app12read_entries
FNDA:3,_RNvNtCs8jEUns2Wh0T_9squirrelt3app12sort_entries
FNF:17
FNH:17
DA:8,3
DA:9,3
DA:11,3
DA:12,4
DA:13,4
DA:14,4
DA:16,0
DA:18,4
DA:19,1
DA:21,3
DA:23,5
DA:24,5
DA:25,5
DA:26,5
DA:28,5
DA:29,5
DA:30,5
DA:31,0
DA:32,0
DA:33,0
DA:36,3
DA:37,3
DA:39,7
DA:40,7
DA:42,14
DA:43,14
DA:44,14
DA:45,14
DA:46,14
DA:48,14
DA:49,14
DA:50,14
DA:51,14
DA:52,14
DA:53,14
DA:56,7
DA:57,7
DA:59,6
DA:60,6
DA:61,1
DA:62,1
DA:63,1
DA:64,1
DA:65,1
DA:66,5
DA:67,2
DA:69,3
DA:71,6
DA:83,4
DA:84,4
DA:85,4
DA:86,4
DA:87,4
DA:88,4
DA:89,4
DA:90,4
DA:91,4
DA:93,8
DA:94,8
DA:95,8
DA:96,8
DA:99,1
DA:100,1
DA:101,1
DA:102,1
DA:104,1
DA:105,1
DA:107,1
DA:108,1
DA:109,1
DA:110,2
DA:111,1
DA:113,1
DA:114,1
DA:116,1
DA:117,1
DA:118,1
DA:119,1
DA:122,1
DA:123,1
DA:124,1
DA:125,1
DA:127,1
DA:128,1
DA:130,1
DA:131,1
DA:132,1
DA:133,1
DA:134,1
DA:135,1
DA:136,1
DA:138,1
DA:139,1
DA:140,1
DA:141,2
DA:142,1
DA:144,1
DA:146,1
DA:147,1
DA:148,1
DA:149,1
DA:152,1
DA:153,1
DA:154,1
DA:155,1
DA:157,1
DA:158,1
DA:160,1
DA:161,1
DA:162,1
DA:163,1
DA:164,1
DA:165,1
DA:166,1
DA:168,1
DA:169,1
DA:170,1
DA:171,2
DA:172,1
DA:174,1
DA:176,1
DA:177,1
DA:178,1
DA:179,1
DA:182,1
DA:183,1
DA:184,1
DA:185,1
DA:187,1
DA:188,1
DA:189,1
DA:191,1
DA:192,1
DA:193,1
DA:194,1
DA:195,1
DA:196,1
DA:197,1
DA:199,1
DA:200,1
DA:201,1
DA:202,2
DA:203,1
DA:205,1
DA:207,1
DA:208,1
DA:209,1
DA:210,1
BRF:0
BRH:0
LF:156
LH:152
end_of_record
SF:/Users/nomurarikuto/Desktop/大学/1セメ/金2エンピリカルソフトウェア工学特論/squirrelt/src/config.rs
FN:14,_RINvMNtCs43Z3K0Ttv6Y_9squirrelt6configNtB3_6Config9from_argsNtNtCsaLOjE9VYtxK_3std3env6ArgsOsECs5EGCHdCaN4W_9squirrelt
FN:42,_RNCINvMNtCs43Z3K0Ttv6Y_9squirrelt6configNtB5_6Config9from_argsNtNtCsaLOjE9VYtxK_3std3env6ArgsOsE0Cs5EGCHdCaN4W_9squirrelt
FN:42,_RNCNCINvMNtCs43Z3K0Ttv6Y_9squirrelt6configNtB7_6Config9from_argsNtNtCsaLOjE9VYtxK_3std3env6ArgsOsE00Cs5EGCHdCaN4W_9squirrelt
FN:14,_RINvMNtCs8jEUns2Wh0T_9squirrelt6configNtB3_6Config9from_argsINtNtCs8dnTdrJsiec_5alloc3vec3VecNtNtNtCsaLOjE9VYtxK_3std3ffi6os_str8OsStringEEB5_
FN:42,_RNCINvMNtCs8jEUns2Wh0T_9squirrelt6configNtB5_6Config9from_argsINtNtCs8dnTdrJsiec_5alloc3vec3VecNtNtNtCsaLOjE9VYtxK_3std3ffi6os_str8OsStringEE0B7_
FN:42,_RNCNCINvMNtCs8jEUns2Wh0T_9squirrelt6configNtB7_6Config9from_argsINtNtCs8dnTdrJsiec_5alloc3vec3VecNtNtNtCsaLOjE9VYtxK_3std3ffi6os_str8OsStringEE00B9_
FN:60,_RNvNtNtCs8jEUns2Wh0T_9squirrelt6config5testss_31from_args_parses_flags_and_path
FN:85,_RNvNtNtCs8jEUns2Wh0T_9squirrelt6config5testss_42from_args_returns_error_for_unknown_option
FN:78,_RNvNtNtCs8jEUns2Wh0T_9squirrelt6config5testss_47from_args_uses_current_dir_when_path_is_missing
FNDA:3,_RINvMNtCs43Z3K0Ttv6Y_9squirrelt6configNtB3_6Config9from_argsNtNtCsaLOjE9VYtxK_3std3env6ArgsOsECs5EGCHdCaN4W_9squirrelt
FNDA:0,_RNCINvMNtCs43Z3K0Ttv6Y_9squirrelt6configNtB5_6Config9from_argsNtNtCsaLOjE9VYtxK_3std3env6ArgsOsE0Cs5EGCHdCaN4W_9squirrelt
FNDA:0,_RNCNCINvMNtCs43Z3K0Ttv6Y_9squirrelt6configNtB7_6Config9from_argsNtNtCsaLOjE9VYtxK_3std3env6ArgsOsE00Cs5EGCHdCaN4W_9squirrelt
FNDA:3,_RINvMNtCs8jEUns2Wh0T_9squirrelt6configNtB3_6Config9from_argsINtNtCs8dnTdrJsiec_5alloc3vec3VecNtNtNtCsaLOjE9VYtxK_3std3ffi6os_str8OsStringEEB5_
FNDA:1,_RNCINvMNtCs8jEUns2Wh0T_9squirrelt6configNtB5_6Config9from_argsINtNtCs8dnTdrJsiec_5alloc3vec3VecNtNtNtCsaLOjE9VYtxK_3std3ffi6os_str8OsStringEE0B7_
FNDA:0,_RNCNCINvMNtCs8jEUns2Wh0T_9squirrelt6configNtB7_6Config9from_argsINtNtCs8dnTdrJsiec_5alloc3vec3VecNtNtNtCsaLOjE9VYtxK_3std3ffi6os_str8OsStringEE00B9_
FNDA:1,_RNvNtNtCs8jEUns2Wh0T_9squirrelt6config5testss_31from_args_parses_flags_and_path
FNDA:1,_RNvNtNtCs8jEUns2Wh0T_9squirrelt6config5testss_42from_args_returns_error_for_unknown_option
FNDA:1,_RNvNtNtCs8jEUns2Wh0T_9squirrelt6config5testss_47from_args_uses_current_dir_when_path_is_missing
FNF:6
FNH:5
DA:14,6
DA:15,6
DA:16,6
DA:18,6
DA:19,6
DA:20,6
DA:21,6
DA:23,6
DA:24,6
DA:26,10
DA:27,10
DA:28,5
DA:29,10
DA:30,8
DA:31,7
DA:32,5
DA:33,1
DA:35,4
DA:37,0
DA:38,0
DA:39,0
DA:42,5
DA:44,5
DA:45,5
DA:46,5
DA:47,5
DA:48,5
DA:49,5
DA:50,6
DA:60,1
DA:61,1
DA:62,1
DA:63,1
DA:64,1
DA:65,1
DA:66,1
DA:69,1
DA:71,1
DA:72,1
DA:73,1
DA:74,1
DA:75,1
DA:78,1
DA:79,1
DA:80,1
DA:81,1
DA:82,1
DA:85,1
DA:86,1
DA:87,1
DA:88,1
DA:89,1
BRF:0
BRH:0
LF:54
LH:50
end_of_record
SF:/Users/nomurarikuto/Desktop/大学/1セメ/金2エンピリカルソフトウェア工学特論/squirrelt/src/entry.rs
FN:37,_RNvNtCs43Z3K0Ttv6Y_9squirrelt5entry13is_executable
FN:12,_RNvNtCs43Z3K0Ttv6Y_9squirrelt5entry15color_for_entry
FN:26,_RNvNtCs43Z3K0Ttv6Y_9squirrelt5entry18color_by_extension
FN:46,_RNvNtCs43Z3K0Ttv6Y_9squirrelt5entry22is_executable_metadata
FN:19,_RNCNvNtCs43Z3K0Ttv6Y_9squirrelt5entry15color_for_entry0B5_
FN:19,_RNCNvNtCs8jEUns2Wh0T_9squirrelt5entry15color_for_entry0B5_
FN:72,_RNvNtNtCs8jEUns2Wh0T_9squirrelt5entry5tests12create_entry
FN:64,_RNvNtNtCs8jEUns2Wh0T_9squirrelt5entry5tests14transient_path
FN:112,_RNvNtNtCs8jEUns2Wh0T_9squirrelt5entry5testss_23directory_color_is_blue
FN:98,_RNvNtNtCs8jEUns2Wh0T_9squirrelt5entry5testss_31color_for_rs_file_returns_green
FN:129,_RNvNtNtCs8jEUns2Wh0T_9squirrelt5entry5testss_36executable_file_is_detected_as_green
FN:105,_RNvNtNtCs8jEUns2Wh0T_9squirrelt5entry5testss_41color_for_unknown_extension_returns_empty
FN:37,_RNvNtCs8jEUns2Wh0T_9squirrelt5entry13is_executable
FN:12,_RNvNtCs8jEUns2Wh0T_9squirrelt5entry15color_for_entry
FN:26,_RNvNtCs8jEUns2Wh0T_9squirrelt5entry18color_by_extension
FN:46,_RNvNtCs8jEUns2Wh0T_9squirrelt5entry22is_executable_metadata
FNDA:5,_RNvNtCs43Z3K0Ttv6Y_9squirrelt5entry13is_executable
FNDA:5,_RNvNtCs43Z3K0Ttv6Y_9squirrelt5entry15color_for_entry
FNDA:0,_RNvNtCs43Z3K0Ttv6Y_9squirrelt5entry18color_by_extension
FNDA:5,_RNvNtCs43Z3K0Ttv6Y_9squirrelt5entry22is_executable_metadata
FNDA:0,_RNCNvNtCs43Z3K0Ttv6Y_9squirrelt5entry15color_for_entry0B5_
FNDA:2,_RNCNvNtCs8jEUns2Wh0T_9squirrelt5entry15color_for_entry0B5_
FNDA:3,_RNvNtNtCs8jEUns2Wh0T_9squirrelt5entry5tests12create_entry
FNDA:4,_RNvNtNtCs8jEUns2Wh0T_9squirrelt5entry5tests14transient_path
FNDA:1,_RNvNtNtCs8jEUns2Wh0T_9squirrelt5entry5testss_23directory_color_is_blue
FNDA:1,_RNvNtNtCs8jEUns2Wh0T_9squirrelt5entry5testss_31color_for_rs_file_returns_green
FNDA:1,_RNvNtNtCs8jEUns2Wh0T_9squirrelt5entry5testss_36executable_file_is_detected_as_green
FNDA:1,_RNvNtNtCs8jEUns2Wh0T_9squirrelt5entry5testss_41color_for_unknown_extension_returns_empty
FNDA:3,_RNvNtCs8jEUns2Wh0T_9squirrelt5entry13is_executable
FNDA:4,_RNvNtCs8jEUns2Wh0T_9squirrelt5entry15color_for_entry
FNDA:2,_RNvNtCs8jEUns2Wh0T_9squirrelt5entry18color_by_extension
FNDA:3,_RNvNtCs8jEUns2Wh0T_9squirrelt5entry22is_executable_metadata
FNF:11
FNH:11
DA:12,9
DA:13,9
DA:14,1
DA:15,8
DA:16,0
DA:17,8
DA:18,1
DA:19,7
DA:20,2
DA:22,5
DA:24,9
DA:26,2
DA:27,2
DA:28,2
DA:29,1
DA:30,1
DA:31,1
DA:32,1
DA:33,1
DA:35,2
DA:37,8
DA:38,8
DA:39,8
DA:41,0
DA:43,8
DA:46,8
DA:48,8
DA:49,8
DA:64,4
DA:65,4
DA:66,4
DA:67,4
DA:68,4
DA:69,4
DA:70,4
DA:72,3
DA:73,3
DA:74,3
DA:75,3
DA:77,3
DA:81,1
DA:82,1
DA:83,1
DA:85,2
DA:87,3
DA:88,3
DA:89,3
DA:90,3
DA:91,3
DA:92,3
DA:93,3
DA:94,3
DA:95,3
DA:98,1
DA:99,1
DA:100,1
DA:101,1
DA:102,1
DA:105,1
DA:106,1
DA:107,1
DA:108,1
DA:109,1
DA:112,1
DA:113,1
DA:114,1
DA:115,1
DA:116,1
DA:117,1
DA:118,1
DA:119,1
DA:120,1
DA:121,1
DA:123,1
DA:124,1
DA:125,1
DA:129,1
DA:130,1
DA:131,1
DA:132,1
DA:133,1
BRF:0
BRH:0
LF:82
LH:79
end_of_record
SF:/Users/nomurarikuto/Desktop/大学/1セメ/金2エンピリカルソフトウェア工学特論/squirrelt/src/main.rs
FN:4,_RNvCs5EGCHdCaN4W_9squirrelt4main
FN:4,_RNvCs5h9ZXOFG9JV_9squirrelt4main
FNDA:3,_RNvCs5EGCHdCaN4W_9squirrelt4main
FNDA:0,_RNvCs5h9ZXOFG9JV_9squirrelt4main
FNF:1
FNH:1
DA:4,3
DA:5,3
DA:6,3
DA:7,0
DA:8,0
DA:9,0
DA:13,3
DA:14,0
DA:15,0
DA:16,3
DA:17,3
BRF:0
BRH:0
LF:11
LH:6
end_of_record